target datalayout = "e-m:e-p270:32:32-p271:32:32-p272:64:64-i64:64-i128:128-f80:128-n8:16:32:64-S128"
target triple = "x86_64-pc-linux-gnu"

%struct.Kit_Sop_t_ = type { i32, i32, ptr }

; Function Attrs: inlinehint nounwind uwtable
define internal i32 @Kit_CubeHasLit(i32 noundef %0, i32 noundef %1) #2 {
  %3 = alloca i32, align 4
  %4 = alloca i32, align 4
  store i32 %0, ptr %3, align 4, !tbaa !10
  store i32 %1, ptr %4, align 4, !tbaa !10
  %5 = load i32, ptr %3, align 4, !tbaa !10
  %6 = load i32, ptr %4, align 4, !tbaa !10
  %7 = shl i32 1, %6
  %8 = and i32 %5, %7
  %9 = icmp ugt i32 %8, 0
  %10 = zext i1 %9 to i32
  ret i32 %10
}

; Function Attrs: inlinehint nounwind uwtable
define internal i32 @Kit_SopCube(ptr noundef %0, i32 noundef %1) #2 {
  %3 = alloca ptr, align 8
  %4 = alloca i32, align 4
  store ptr %0, ptr %3, align 8, !tbaa !3
  store i32 %1, ptr %4, align 4, !tbaa !10
  %5 = load ptr, ptr %3, align 8, !tbaa !3
  %6 = getelementptr inbounds nuw %struct.Kit_Sop_t_, ptr %5, i32 0, i32 2
  %7 = load ptr, ptr %6, align 8, !tbaa !15
  %8 = load i32, ptr %4, align 4, !tbaa !10
  %9 = sext i32 %8 to i64
  %10 = getelementptr inbounds i32, ptr %7, i64 %9
  %11 = load i32, ptr %10, align 4, !tbaa !10
  ret i32 %11
}

; Function Attrs: inlinehint nounwind uwtable
define internal i32 @Kit_SopCubeNum(ptr noundef %0) #2 {
  %2 = alloca ptr, align 8
  store ptr %0, ptr %2, align 8, !tbaa !3
  %3 = load ptr, ptr %2, align 8, !tbaa !3
  %4 = getelementptr inbounds nuw %struct.Kit_Sop_t_, ptr %3, i32 0, i32 1
  %5 = load i32, ptr %4, align 4, !tbaa !12
  ret i32 %5
}

; Function Attrs: nounwind uwtable
define i32 @Kit_SopAnyLiteral(ptr noundef %0, i32 noundef %1) #0 {
  %3 = alloca i32, align 4
  %4 = alloca ptr, align 8
  %5 = alloca i32, align 4
  %6 = alloca i32, align 4
  %7 = alloca i32, align 4
  %8 = alloca i32, align 4
  %9 = alloca i32, align 4
  %10 = alloca i32, align 4
  store ptr %0, ptr %4, align 8, !tbaa !3
  store i32 %1, ptr %5, align 4, !tbaa !10
  call void @llvm.lifetime.start.p0(i64 4, ptr %6) #3
  call void @llvm.lifetime.start.p0(i64 4, ptr %7) #3
  call void @llvm.lifetime.start.p0(i64 4, ptr %8) #3
  call void @llvm.lifetime.start.p0(i64 4, ptr %9) #3
  store i32 0, ptr %7, align 4, !tbaa !10
  br label %11

11:                                               ; preds = %46, %2
  %12 = load i32, ptr %7, align 4, !tbaa !10
  %13 = load i32, ptr %5, align 4, !tbaa !10
  %14 = icmp slt i32 %12, %13
  br i1 %14, label %15, label %49

15:                                               ; preds = %11
  store i32 0, ptr %9, align 4, !tbaa !10
  store i32 0, ptr %8, align 4, !tbaa !10
  br label %16

16:                                               ; preds = %37, %15
  %17 = load i32, ptr %8, align 4, !tbaa !10
  %18 = load ptr, ptr %4, align 8, !tbaa !3
  %19 = call i32 @Kit_SopCubeNum(ptr noundef %18)
  %20 = icmp slt i32 %17, %19
  br i1 %20, label %21, label %26

21:                                               ; preds = %16
  %22 = load ptr, ptr %4, align 8, !tbaa !3
  %23 = load i32, ptr %8, align 4, !tbaa !10
  %24 = call i32 @Kit_SopCube(ptr noundef %22, i32 noundef %23)
  store i32 %24, ptr %6, align 4, !tbaa !10
  %25 = icmp ne i32 %24, 0
  br label %26

26:                                               ; preds = %21, %16
  %27 = phi i1 [ false, %16 ], [ %25, %21 ]
  br i1 %27, label %28, label %40

28:                                               ; preds = %26
  %29 = load i32, ptr %6, align 4, !tbaa !10
  %30 = load i32, ptr %7, align 4, !tbaa !10
  %31 = call i32 @Kit_CubeHasLit(i32 noundef %29, i32 noundef %30)
  %32 = icmp ne i32 %31, 0
  br i1 %32, label %33, label %36

33:                                               ; preds = %28
  %34 = load i32, ptr %9, align 4, !tbaa !10
  %35 = add nsw i32 %34, 1
  store i32 %35, ptr %9, align 4, !tbaa !10
  br label %36

36:                                               ; preds = %33, %28
  br label %37

37:                                               ; preds = %36
  %38 = load i32, ptr %8, align 4, !tbaa !10
  %39 = add nsw i32 %38, 1
  store i32 %39, ptr %8, align 4, !tbaa !10
  br label %16, !llvm.loop !35

40:                                               ; preds = %26
  %41 = load i32, ptr %9, align 4, !tbaa !10
  %42 = icmp sgt i32 %41, 1
  br i1 %42, label %43, label %45

43:                                               ; preds = %40
  %44 = load i32, ptr %7, align 4, !tbaa !10
  store i32 %44, ptr %3, align 4
  store i32 1, ptr %10, align 4
  br label %50

45:                                               ; preds = %40
  br label %46

46:                                               ; preds = %45
  %47 = load i32, ptr %7, align 4, !tbaa !10
  %48 = add nsw i32 %47, 1
  store i32 %48, ptr %7, align 4, !tbaa !10
  br label %11, !llvm.loop !36

49:                                               ; preds = %11
  store i32 -1, ptr %3, align 4
  store i32 1, ptr %10, align 4
  br label %50

50:                                               ; preds = %49, %43
  call void @llvm.lifetime.end.p0(i64 4, ptr %9) #3
  call void @llvm.lifetime.end.p0(i64 4, ptr %8) #3
  call void @llvm.lifetime.end.p0(i64 4, ptr %7) #3
  call void @llvm.lifetime.end.p0(i64 4, ptr %6) #3
  %51 = load i32, ptr %3, align 4
  ret i32 %51
}