; Function Attrs: nofree norecurse nosync nounwind memory(read, inaccessiblemem: none) uwtable
define i32 @Kit_SopAnyLiteral(ptr noundef readonly captures(none) %0, i32 noundef %1) local_unnamed_addr #1 {
  %3 = icmp sgt i32 %1, 0
  br i1 %3, label %.preheader.lr.ph, label %._crit_edge

.preheader.lr.ph:                                 ; preds = %2
  %4 = getelementptr i8, ptr %0, i64 4
  %.val = load i32, ptr %4, align 4, !tbaa !3
  %5 = icmp sgt i32 %.val, 0
  br i1 %5, label %.preheader.lr.ph.split.us, label %._crit_edge

.preheader.lr.ph.split.us:                        ; preds = %.preheader.lr.ph
  %6 = getelementptr i8, ptr %0, i64 8
  %.val18.us = load ptr, ptr %6, align 8, !tbaa !12
  %wide.trip.count = zext nneg i32 %.val to i64
  br label %.preheader.us

.preheader.us:                                    ; preds = %14, %.preheader.lr.ph.split.us
  %.01423.us = phi i32 [ 0, %.preheader.lr.ph.split.us ], [ %15, %14 ]
  br label %7

7:                                                ; preds = %.preheader.us, %10
  %indvars.iv = phi i64 [ 0, %.preheader.us ], [ %indvars.iv.next, %10 ]
  %.020.us = phi i32 [ 0, %.preheader.us ], [ %spec.select.us, %10 ]
  %8 = getelementptr inbounds nuw i32, ptr %.val18.us, i64 %indvars.iv
  %9 = load i32, ptr %8, align 4, !tbaa !15
  %.not.us = icmp eq i32 %9, 0
  br i1 %.not.us, label %.critedge.us, label %10

10:                                               ; preds = %7
  %11 = lshr i32 %9, %.01423.us
  %12 = and i32 %11, 1
  %spec.select.us = add nuw nsw i32 %12, %.020.us
  %indvars.iv.next = add nuw nsw i64 %indvars.iv, 1
  %exitcond.not = icmp eq i64 %indvars.iv.next, %wide.trip.count
  br i1 %exitcond.not, label %.critedge.us, label %7, !llvm.loop !31

.critedge.us:                                     ; preds = %7, %10
  %.0.lcssa.us = phi i32 [ %spec.select.us, %10 ], [ %.020.us, %7 ]
  %13 = icmp samesign ugt i32 %.0.lcssa.us, 1
  br i1 %13, label %._crit_edge, label %14

14:                                               ; preds = %.critedge.us
  %15 = add nuw nsw i32 %.01423.us, 1
  %exitcond29.not = icmp eq i32 %15, %1
  br i1 %exitcond29.not, label %._crit_edge, label %.preheader.us, !llvm.loop !32

._crit_edge:                                      ; preds = %.critedge.us, %14, %.preheader.lr.ph, %2
  %.015 = phi i32 [ -1, %2 ], [ -1, %.preheader.lr.ph ], [ -1, %14 ], [ %.01423.us, %.critedge.us ]
  ret i32 %.015
}